ccopy_reg
_reconstructor
p0
(cdedupe.datamodel
DataModel
p1
c__builtin__
object
p2
Ntp3
Rp4
(dp5
S'primary_fields'
p6
(lp7
g0
(cdedupe.variables.string
StringType
p8
g2
Ntp9
Rp10
(dp11
S'predicates'
p12
(lp13
g0
(cdedupe.predicates
StringPredicate
p14
g2
Ntp15
Rp16
(dp17
S'_cached_hash'
p18
I-4937747247591459679
sS'__name__'
p19
S'(wholeFieldPredicate, name)'
p20
sS'func'
p21
cdedupe.predicates
wholeFieldPredicate
p22
sS'field'
p23
S'name'
p24
sbag0
(g14
g2
Ntp25
Rp26
(dp27
g18
I-1390048997759339981
sg19
S'(firstTokenPredicate, name)'
p28
sg21
cdedupe.predicates
firstTokenPredicate
p29
sg23
g24
sbag0
(g14
g2
Ntp30
Rp31
(dp32
g18
I7472316170684315496
sg19
S'(commonIntegerPredicate, name)'
p33
sg21
cdedupe.predicates
commonIntegerPredicate
p34
sg23
g24
sbag0
(g14
g2
Ntp35
Rp36
(dp37
g18
I6134290319993410483
sg19
S'(nearIntegersPredicate, name)'
p38
sg21
cdedupe.predicates
nearIntegersPredicate
p39
sg23
g24
sbag0
(g14
g2
Ntp40
Rp41
(dp42
g18
I-6379899146307872144
sg19
S'(firstIntegerPredicate, name)'
p43
sg21
cdedupe.predicates
firstIntegerPredicate
p44
sg23
g24
sbag0
(g14
g2
Ntp45
Rp46
(dp47
g18
I6418614689498918100
sg19
S'(hundredIntegerPredicate, name)'
p48
sg21
cdedupe.predicates
hundredIntegerPredicate
p49
sg23
g24
sbag0
(g14
g2
Ntp50
Rp51
(dp52
g18
I8481537569327599458
sg19
S'(hundredIntegersOddPredicate, name)'
p53
sg21
cdedupe.predicates
hundredIntegersOddPredicate
p54
sg23
g24
sbag0
(g14
g2
Ntp55
Rp56
(dp57
g18
I-2985969646012599355
sg19
S'(alphaNumericPredicate, name)'
p58
sg21
cdedupe.predicates
alphaNumericPredicate
p59
sg23
g24
sbag0
(g14
g2
Ntp60
Rp61
(dp62
g18
I-24342284244465188
sg19
S'(sameThreeCharStartPredicate, name)'
p63
sg21
cdedupe.predicates
sameThreeCharStartPredicate
p64
sg23
g24
sbag0
(g14
g2
Ntp65
Rp66
(dp67
g18
I4415179732486073549
sg19
S'(sameFiveCharStartPredicate, name)'
p68
sg21
cdedupe.predicates
sameFiveCharStartPredicate
p69
sg23
g24
sbag0
(g14
g2
Ntp70
Rp71
(dp72
g18
I1072176855367152641
sg19
S'(sameSevenCharStartPredicate, name)'
p73
sg21
cdedupe.predicates
sameSevenCharStartPredicate
p74
sg23
g24
sbag0
(g14
g2
Ntp75
Rp76
(dp77
g18
I-696289317194671256
sg19
S'(commonTwoTokens, name)'
p78
sg21
cdedupe.predicates
commonTwoTokens
p79
sg23
g24
sbag0
(g14
g2
Ntp80
Rp81
(dp82
g18
I1372301868192084684
sg19
S'(commonThreeTokens, name)'
p83
sg21
cdedupe.predicates
commonThreeTokens
p84
sg23
g24
sbag0
(g14
g2
Ntp85
Rp86
(dp87
g18
I3110945323757903147
sg19
S'(fingerprint, name)'
p88
sg21
cdedupe.predicates
fingerprint
p89
sg23
g24
sbag0
(g14
g2
Ntp90
Rp91
(dp92
g18
I5117932709339567723
sg19
S'(oneGramFingerprint, name)'
p93
sg21
cdedupe.predicates
oneGramFingerprint
p94
sg23
g24
sbag0
(g14
g2
Ntp95
Rp96
(dp97
g18
I-591250315099692071
sg19
S'(twoGramFingerprint, name)'
p98
sg21
cdedupe.predicates
twoGramFingerprint
p99
sg23
g24
sbag0
(g14
g2
Ntp100
Rp101
(dp102
g18
I6931574008273275967
sg19
S'(sortedAcronym, name)'
p103
sg21
cdedupe.predicates
sortedAcronym
p104
sg23
g24
sbag0
(g14
g2
Ntp105
Rp106
(dp107
g18
I-1636994616181540088
sg19
S'(commonFourGram, name)'
p108
sg21
cdedupe.predicates
commonFourGram
p109
sg23
g24
sbag0
(g14
g2
Ntp110
Rp111
(dp112
g18
I5893398517016300809
sg19
S'(commonSixGram, name)'
p113
sg21
cdedupe.predicates
commonSixGram
p114
sg23
g24
sbag0
(g14
g2
Ntp115
Rp116
(dp117
g18
I-646378870561596365
sg19
S'(tokenFieldPredicate, name)'
p118
sg21
cdedupe.predicates
tokenFieldPredicate
p119
sg23
g24
sbag0
(g14
g2
Ntp120
Rp121
(dp122
g18
I3202989463067166329
sg19
S'(suffixArray, name)'
p123
sg21
cdedupe.predicates
suffixArray
p124
sg23
g24
sbag0
(g14
g2
Ntp125
Rp126
(dp127
g18
I1948170838128341051
sg19
S'(doubleMetaphone, name)'
p128
sg21
cdedupe.predicates
doubleMetaphone
p129
sg23
g24
sbag0
(g14
g2
Ntp130
Rp131
(dp132
g18
I3720311274714888862
sg19
S'(metaphoneToken, name)'
p133
sg21
cdedupe.predicates
metaphoneToken
p134
sg23
g24
sbag0
(cdedupe.predicates
TfidfNGramCanopyPredicate
p135
g2
Ntp136
Rp137
(dp138
S'threshold'
p139
F0.2
sg19
S'(0.2, name)'
p140
sg23
g24
sbag0
(g135
g2
Ntp141
Rp142
(dp143
g139
F0.4
sg19
S'(0.4, name)'
p144
sg23
g24
sbag0
(g135
g2
Ntp145
Rp146
(dp147
g139
F0.6
sg19
S'(0.6, name)'
p148
sg23
g24
sbag0
(g135
g2
Ntp149
Rp150
(dp151
g139
F0.8
sg19
S'(0.8, name)'
p152
sg23
g24
sbag0
(cdedupe.predicates
TfidfNGramSearchPredicate
p153
g2
Ntp154
Rp155
(dp156
g139
F0.2
sg19
S'(0.2, name)'
p157
sg23
g24
sbag0
(g153
g2
Ntp158
Rp159
(dp160
g139
F0.4
sg19
S'(0.4, name)'
p161
sg23
g24
sbag0
(g153
g2
Ntp162
Rp163
(dp164
g139
F0.6
sg19
S'(0.6, name)'
p165
sg23
g24
sbag0
(g153
g2
Ntp166
Rp167
(dp168
g139
F0.8
sg19
S'(0.8, name)'
p169
sg23
g24
sbag0
(cdedupe.predicates
TfidfTextCanopyPredicate
p170
g2
Ntp171
Rp172
(dp173
g139
F0.2
sg19
S'(0.2, name)'
p174
sg23
g24
sbag0
(g170
g2
Ntp175
Rp176
(dp177
g139
F0.4
sg19
S'(0.4, name)'
p178
sg23
g24
sbag0
(g170
g2
Ntp179
Rp180
(dp181
g139
F0.6
sg19
S'(0.6, name)'
p182
sg23
g24
sbag0
(g170
g2
Ntp183
Rp184
(dp185
g139
F0.8
sg19
S'(0.8, name)'
p186
sg23
g24
sbag0
(cdedupe.predicates
TfidfTextSearchPredicate
p187
g2
Ntp188
Rp189
(dp190
g139
F0.2
sg19
S'(0.2, name)'
p191
sg23
g24
sbag0
(g187
g2
Ntp192
Rp193
(dp194
g139
F0.4
sg19
S'(0.4, name)'
p195
sg23
g24
sbag0
(g187
g2
Ntp196
Rp197
(dp198
g139
F0.6
sg19
S'(0.6, name)'
p199
sg23
g24
sbag0
(g187
g2
Ntp200
Rp201
(dp202
g139
F0.8
sg19
S'(0.8, name)'
p203
sg23
g24
sbag0
(cdedupe.predicates
LevenshteinCanopyPredicate
p204
g2
Ntp205
Rp206
(dp207
g139
I1
sg19
S'(1, name)'
p208
sg23
g24
sbag0
(g204
g2
Ntp209
Rp210
(dp211
g139
I2
sg19
S'(2, name)'
p212
sg23
g24
sbag0
(g204
g2
Ntp213
Rp214
(dp215
g139
I3
sg19
S'(3, name)'
p216
sg23
g24
sbag0
(g204
g2
Ntp217
Rp218
(dp219
g139
I4
sg19
S'(4, name)'
p220
sg23
g24
sbag0
(cdedupe.predicates
LevenshteinSearchPredicate
p221
g2
Ntp222
Rp223
(dp224
g139
I1
sg19
S'(1, name)'
p225
sg23
g24
sbag0
(g221
g2
Ntp226
Rp227
(dp228
g139
I2
sg19
S'(2, name)'
p229
sg23
g24
sbag0
(g221
g2
Ntp230
Rp231
(dp232
g139
I3
sg19
S'(3, name)'
p233
sg23
g24
sbag0
(g221
g2
Ntp234
Rp235
(dp236
g139
I4
sg19
S'(4, name)'
p237
sg23
g24
sbasg23
g24
sg24
g24
sS'has_missing'
p238
I00
sS'comparator'
p239
caffinegap.affinegap
normalizedAffineGapDistance
p240
sbag0
(g8
g2
Ntp241
Rp242
(dp243
g12
(lp244
g0
(g14
g2
Ntp245
Rp246
(dp247
g18
I-2028524488187436365
sg19
S'(wholeFieldPredicate, address)'
p248
sg21
g22
sg23
S'address'
p249
sbag0
(g14
g2
Ntp250
Rp251
(dp252
g18
I-5041132739147814395
sg19
S'(firstTokenPredicate, address)'
p253
sg21
g29
sg23
g249
sbag0
(g14
g2
Ntp254
Rp255
(dp256
g18
I-4955744306396083344
sg19
S'(commonIntegerPredicate, address)'
p257
sg21
g34
sg23
g249
sbag0
(g14
g2
Ntp258
Rp259
(dp260
g18
I-3387919785382391139
sg19
S'(nearIntegersPredicate, address)'
p261
sg21
g39
sg23
g249
sbag0
(g14
g2
Ntp262
Rp263
(dp264
g18
I-8699718751670505020
sg19
S'(firstIntegerPredicate, address)'
p265
sg21
g44
sg23
g249
sbag0
(g14
g2
Ntp266
Rp267
(dp268
g18
I2520298060977650412
sg19
S'(hundredIntegerPredicate, address)'
p269
sg21
g49
sg23
g249
sbag0
(g14
g2
Ntp270
Rp271
(dp272
g18
I7406261882626580426
sg19
S'(hundredIntegersOddPredicate, address)'
p273
sg21
g54
sg23
g249
sbag0
(g14
g2
Ntp274
Rp275
(dp276
g18
I1830097552931434255
sg19
S'(alphaNumericPredicate, address)'
p277
sg21
g59
sg23
g249
sbag0
(g14
g2
Ntp278
Rp279
(dp280
g18
I-6400063605138909316
sg19
S'(sameThreeCharStartPredicate, address)'
p281
sg21
g64
sg23
g249
sbag0
(g14
g2
Ntp282
Rp283
(dp284
g18
I7794578833459564451
sg19
S'(sameFiveCharStartPredicate, address)'
p285
sg21
g69
sg23
g249
sbag0
(g14
g2
Ntp286
Rp287
(dp288
g18
I1592313108258875011
sg19
S'(sameSevenCharStartPredicate, address)'
p289
sg21
g74
sg23
g249
sbag0
(g14
g2
Ntp290
Rp291
(dp292
g18
I-2231412350129386792
sg19
S'(commonTwoTokens, address)'
p293
sg21
g79
sg23
g249
sbag0
(g14
g2
Ntp294
Rp295
(dp296
g18
I2137030375637274976
sg19
S'(commonThreeTokens, address)'
p297
sg21
g84
sg23
g249
sbag0
(g14
g2
Ntp298
Rp299
(dp300
g18
I-4572935961933443395
sg19
S'(fingerprint, address)'
p301
sg21
g89
sg23
g249
sbag0
(g14
g2
Ntp302
Rp303
(dp304
g18
I-5829676458710809635
sg19
S'(oneGramFingerprint, address)'
p305
sg21
g94
sg23
g249
sbag0
(g14
g2
Ntp306
Rp307
(dp308
g18
I7294012275879379039
sg19
S'(twoGramFingerprint, address)'
p309
sg21
g99
sg23
g249
sbag0
(g14
g2
Ntp310
Rp311
(dp312
g18
I-7508851502685450551
sg19
S'(sortedAcronym, address)'
p313
sg21
g104
sg23
g249
sbag0
(g14
g2
Ntp314
Rp315
(dp316
g18
I-8865622915044335344
sg19
S'(commonFourGram, address)'
p317
sg21
g109
sg23
g249
sbag0
(g14
g2
Ntp318
Rp319
(dp320
g18
I-8081177940037318893
sg19
S'(commonSixGram, address)'
p321
sg21
g114
sg23
g249
sbag0
(g14
g2
Ntp322
Rp323
(dp324
g18
I2280367914514176005
sg19
S'(tokenFieldPredicate, address)'
p325
sg21
g119
sg23
g249
sbag0
(g14
g2
Ntp326
Rp327
(dp328
g18
I-379040067095129525
sg19
S'(suffixArray, address)'
p329
sg21
g124
sg23
g249
sbag0
(g14
g2
Ntp330
Rp331
(dp332
g18
I7794488869658354045
sg19
S'(doubleMetaphone, address)'
p333
sg21
g129
sg23
g249
sbag0
(g14
g2
Ntp334
Rp335
(dp336
g18
I-1237346606295732822
sg19
S'(metaphoneToken, address)'
p337
sg21
g134
sg23
g249
sbag0
(g135
g2
Ntp338
Rp339
(dp340
g139
F0.2
sg19
S'(0.2, address)'
p341
sg23
g249
sbag0
(g135
g2
Ntp342
Rp343
(dp344
g139
F0.4
sg19
S'(0.4, address)'
p345
sg23
g249
sbag0
(g135
g2
Ntp346
Rp347
(dp348
g139
F0.6
sg19
S'(0.6, address)'
p349
sg23
g249
sbag0
(g135
g2
Ntp350
Rp351
(dp352
g139
F0.8
sg19
S'(0.8, address)'
p353
sg23
g249
sbag0
(g153
g2
Ntp354
Rp355
(dp356
g139
F0.2
sg19
S'(0.2, address)'
p357
sg23
g249
sbag0
(g153
g2
Ntp358
Rp359
(dp360
g139
F0.4
sg19
S'(0.4, address)'
p361
sg23
g249
sbag0
(g153
g2
Ntp362
Rp363
(dp364
g139
F0.6
sg19
S'(0.6, address)'
p365
sg23
g249
sbag0
(g153
g2
Ntp366
Rp367
(dp368
g139
F0.8
sg19
S'(0.8, address)'
p369
sg23
g249
sbag0
(g170
g2
Ntp370
Rp371
(dp372
g139
F0.2
sg19
S'(0.2, address)'
p373
sg23
g249
sbag0
(g170
g2
Ntp374
Rp375
(dp376
g139
F0.4
sg19
S'(0.4, address)'
p377
sg23
g249
sbag0
(g170
g2
Ntp378
Rp379
(dp380
g139
F0.6
sg19
S'(0.6, address)'
p381
sg23
g249
sbag0
(g170
g2
Ntp382
Rp383
(dp384
g139
F0.8
sg19
S'(0.8, address)'
p385
sg23
g249
sbag0
(g187
g2
Ntp386
Rp387
(dp388
g139
F0.2
sg19
S'(0.2, address)'
p389
sg23
g249
sbag0
(g187
g2
Ntp390
Rp391
(dp392
g139
F0.4
sg19
S'(0.4, address)'
p393
sg23
g249
sbag0
(g187
g2
Ntp394
Rp395
(dp396
g139
F0.6
sg19
S'(0.6, address)'
p397
sg23
g249
sbag0
(g187
g2
Ntp398
Rp399
(dp400
g139
F0.8
sg19
S'(0.8, address)'
p401
sg23
g249
sbag0
(cdedupe.predicates
ExistsPredicate
p402
g2
Ntp403
Rp404
(dp405
g18
I-4305236092747103664
sg19
S'(Exists, address)'
p406
sg23
g249
sbag0
(g204
g2
Ntp407
Rp408
(dp409
g139
I1
sg19
S'(1, address)'
p410
sg23
g249
sbag0
(g204
g2
Ntp411
Rp412
(dp413
g139
I2
sg19
S'(2, address)'
p414
sg23
g249
sbag0
(g204
g2
Ntp415
Rp416
(dp417
g139
I3
sg19
S'(3, address)'
p418
sg23
g249
sbag0
(g204
g2
Ntp419
Rp420
(dp421
g139
I4
sg19
S'(4, address)'
p422
sg23
g249
sbag0
(g221
g2
Ntp423
Rp424
(dp425
g139
I1
sg19
S'(1, address)'
p426
sg23
g249
sbag0
(g221
g2
Ntp427
Rp428
(dp429
g139
I2
sg19
S'(2, address)'
p430
sg23
g249
sbag0
(g221
g2
Ntp431
Rp432
(dp433
g139
I3
sg19
S'(3, address)'
p434
sg23
g249
sbag0
(g221
g2
Ntp435
Rp436
(dp437
g139
I4
sg19
S'(4, address)'
p438
sg23
g249
sbasg23
g249
sg24
g249
sg238
I01
sg239
g240
sbag0
(g8
g2
Ntp439
Rp440
(dp441
g12
(lp442
g0
(g14
g2
Ntp443
Rp444
(dp445
g18
I-6043964467620880099
sg19
S'(wholeFieldPredicate, city)'
p446
sg21
g22
sg23
S'city'
p447
sbag0
(g14
g2
Ntp448
Rp449
(dp450
g18
I-4942754290338310409
sg19
S'(firstTokenPredicate, city)'
p451
sg21
g29
sg23
g447
sbag0
(g14
g2
Ntp452
Rp453
(dp454
g18
I-1846131454178439156
sg19
S'(commonIntegerPredicate, city)'
p455
sg21
g34
sg23
g447
sbag0
(g14
g2
Ntp456
Rp457
(dp458
g18
I-4758231192538213713
sg19
S'(nearIntegersPredicate, city)'
p459
sg21
g39
sg23
g447
sbag0
(g14
g2
Ntp460
Rp461
(dp462
g18
I-7885359409124668892
sg19
S'(firstIntegerPredicate, city)'
p463
sg21
g44
sg23
g447
sbag0
(g14
g2
Ntp464
Rp465
(dp466
g18
I214345327870853776
sg19
S'(hundredIntegerPredicate, city)'
p467
sg21
g49
sg23
g447
sbag0
(g14
g2
Ntp468
Rp469
(dp470
g18
I-7957069460192680842
sg19
S'(hundredIntegersOddPredicate, city)'
p471
sg21
g54
sg23
g447
sbag0
(g14
g2
Ntp472
Rp473
(dp474
g18
I-2741785663668152263
sg19
S'(alphaNumericPredicate, city)'
p475
sg21
g59
sg23
g447
sbag0
(g14
g2
Ntp476
Rp477
(dp478
g18
I-5131900771616840432
sg19
S'(sameThreeCharStartPredicate, city)'
p479
sg21
g64
sg23
g447
sbag0
(g14
g2
Ntp480
Rp481
(dp482
g18
I657606444647561113
sg19
S'(sameFiveCharStartPredicate, city)'
p483
sg21
g69
sg23
g447
sbag0
(g14
g2
Ntp484
Rp485
(dp486
g18
I7753761230400397837
sg19
S'(sameSevenCharStartPredicate, city)'
p487
sg21
g74
sg23
g447
sbag0
(g14
g2
Ntp488
Rp489
(dp490
g18
I8622174307420082516
sg19
S'(commonTwoTokens, city)'
p491
sg21
g79
sg23
g447
sbag0
(g14
g2
Ntp492
Rp493
(dp494
g18
I1128357887647640824
sg19
S'(commonThreeTokens, city)'
p495
sg21
g84
sg23
g447
sbag0
(g14
g2
Ntp496
Rp497
(dp498
g18
I5966374786148562927
sg19
S'(fingerprint, city)'
p499
sg21
g89
sg23
g447
sbag0
(g14
g2
Ntp500
Rp501
(dp502
g18
I-4010347739755230121
sg19
S'(oneGramFingerprint, city)'
p503
sg21
g94
sg23
g447
sbag0
(g14
g2
Ntp504
Rp505
(dp506
g18
I515014905201728741
sg19
S'(twoGramFingerprint, city)'
p507
sg21
g99
sg23
g447
sbag0
(g14
g2
Ntp508
Rp509
(dp510
g18
I4923420964068004779
sg19
S'(sortedAcronym, city)'
p511
sg21
g104
sg23
g447
sbag0
(g14
g2
Ntp512
Rp513
(dp514
g18
I3470803872766837708
sg19
S'(commonFourGram, city)'
p515
sg21
g109
sg23
g447
sbag0
(g14
g2
Ntp516
Rp517
(dp518
g18
I-7445547067744873011
sg19
S'(commonSixGram, city)'
p519
sg21
g114
sg23
g447
sbag0
(g14
g2
Ntp520
Rp521
(dp522
g18
I-4199084163140566793
sg19
S'(tokenFieldPredicate, city)'
p523
sg21
g119
sg23
g447
sbag0
(g14
g2
Ntp524
Rp525
(dp526
g18
I8505098999223378021
sg19
S'(suffixArray, city)'
p527
sg21
g124
sg23
g447
sbag0
(g14
g2
Ntp528
Rp529
(dp530
g18
I5705792126166853687
sg19
S'(doubleMetaphone, city)'
p531
sg21
g129
sg23
g447
sbag0
(g14
g2
Ntp532
Rp533
(dp534
g18
I3964271255531333386
sg19
S'(metaphoneToken, city)'
p535
sg21
g134
sg23
g447
sbag0
(g135
g2
Ntp536
Rp537
(dp538
g139
F0.2
sg19
S'(0.2, city)'
p539
sg23
g447
sbag0
(g135
g2
Ntp540
Rp541
(dp542
g139
F0.4
sg19
S'(0.4, city)'
p543
sg23
g447
sbag0
(g135
g2
Ntp544
Rp545
(dp546
g139
F0.6
sg19
S'(0.6, city)'
p547
sg23
g447
sbag0
(g135
g2
Ntp548
Rp549
(dp550
g139
F0.8
sg19
S'(0.8, city)'
p551
sg23
g447
sbag0
(g153
g2
Ntp552
Rp553
(dp554
g139
F0.2
sg19
S'(0.2, city)'
p555
sg23
g447
sbag0
(g153
g2
Ntp556
Rp557
(dp558
g139
F0.4
sg19
S'(0.4, city)'
p559
sg23
g447
sbag0
(g153
g2
Ntp560
Rp561
(dp562
g139
F0.6
sg19
S'(0.6, city)'
p563
sg23
g447
sbag0
(g153
g2
Ntp564
Rp565
(dp566
g139
F0.8
sg19
S'(0.8, city)'
p567
sg23
g447
sbag0
(g170
g2
Ntp568
Rp569
(dp570
g139
F0.2
sg19
S'(0.2, city)'
p571
sg23
g447
sbag0
(g170
g2
Ntp572
Rp573
(dp574
g139
F0.4
sg19
S'(0.4, city)'
p575
sg23
g447
sbag0
(g170
g2
Ntp576
Rp577
(dp578
g139
F0.6
sg19
S'(0.6, city)'
p579
sg23
g447
sbag0
(g170
g2
Ntp580
Rp581
(dp582
g139
F0.8
sg19
S'(0.8, city)'
p583
sg23
g447
sbag0
(g187
g2
Ntp584
Rp585
(dp586
g139
F0.2
sg19
S'(0.2, city)'
p587
sg23
g447
sbag0
(g187
g2
Ntp588
Rp589
(dp590
g139
F0.4
sg19
S'(0.4, city)'
p591
sg23
g447
sbag0
(g187
g2
Ntp592
Rp593
(dp594
g139
F0.6
sg19
S'(0.6, city)'
p595
sg23
g447
sbag0
(g187
g2
Ntp596
Rp597
(dp598
g139
F0.8
sg19
S'(0.8, city)'
p599
sg23
g447
sbag0
(g402
g2
Ntp600
Rp601
(dp602
g18
I5027321753524690700
sg19
S'(Exists, city)'
p603
sg23
g447
sbag0
(g204
g2
Ntp604
Rp605
(dp606
g139
I1
sg19
S'(1, city)'
p607
sg23
g447
sbag0
(g204
g2
Ntp608
Rp609
(dp610
g139
I2
sg19
S'(2, city)'
p611
sg23
g447
sbag0
(g204
g2
Ntp612
Rp613
(dp614
g139
I3
sg19
S'(3, city)'
p615
sg23
g447
sbag0
(g204
g2
Ntp616
Rp617
(dp618
g139
I4
sg19
S'(4, city)'
p619
sg23
g447
sbag0
(g221
g2
Ntp620
Rp621
(dp622
g139
I1
sg19
S'(1, city)'
p623
sg23
g447
sbag0
(g221
g2
Ntp624
Rp625
(dp626
g139
I2
sg19
S'(2, city)'
p627
sg23
g447
sbag0
(g221
g2
Ntp628
Rp629
(dp630
g139
I3
sg19
S'(3, city)'
p631
sg23
g447
sbag0
(g221
g2
Ntp632
Rp633
(dp634
g139
I4
sg19
S'(4, city)'
p635
sg23
g447
sbasg23
g447
sg24
S'(city: String)'
p636
sg238
I01
sg239
g240
sbag0
(g8
g2
Ntp637
Rp638
(dp639
g12
(lp640
g0
(g14
g2
Ntp641
Rp642
(dp643
g18
I6339596411087265228
sg19
S'(wholeFieldPredicate, state)'
p644
sg21
g22
sg23
S'state'
p645
sbag0
(g14
g2
Ntp646
Rp647
(dp648
g18
I1501255377624798914
sg19
S'(firstTokenPredicate, state)'
p649
sg21
g29
sg23
g645
sbag0
(g14
g2
Ntp650
Rp651
(dp652
g18
I-2988040663138936681
sg19
S'(commonIntegerPredicate, state)'
p653
sg21
g34
sg23
g645
sbag0
(g14
g2
Ntp654
Rp655
(dp656
g18
I-8358292590344626914
sg19
S'(nearIntegersPredicate, state)'
p657
sg21
g39
sg23
g645
sbag0
(g14
g2
Ntp658
Rp659
(dp660
g18
I-7194182941269984937
sg19
S'(firstIntegerPredicate, state)'
p661
sg21
g44
sg23
g645
sbag0
(g14
g2
Ntp662
Rp663
(dp664
g18
I-506358084318222885
sg19
S'(hundredIntegerPredicate, state)'
p665
sg21
g49
sg23
g645
sbag0
(g14
g2
Ntp666
Rp667
(dp668
g18
I2002643038134912085
sg19
S'(hundredIntegersOddPredicate, state)'
p669
sg21
g54
sg23
g645
sbag0
(g14
g2
Ntp670
Rp671
(dp672
g18
I-7560777925405238036
sg19
S'(alphaNumericPredicate, state)'
p673
sg21
g59
sg23
g645
sbag0
(g14
g2
Ntp674
Rp675
(dp676
g18
I1997458136107207139
sg19
S'(sameThreeCharStartPredicate, state)'
p677
sg21
g64
sg23
g645
sbag0
(g14
g2
Ntp678
Rp679
(dp680
g18
I1959790775852507436
sg19
S'(sameFiveCharStartPredicate, state)'
p681
sg21
g69
sg23
g645
sbag0
(g14
g2
Ntp682
Rp683
(dp684
g18
I-650294165072659444
sg19
S'(sameSevenCharStartPredicate, state)'
p685
sg21
g74
sg23
g645
sbag0
(g14
g2
Ntp686
Rp687
(dp688
g18
I8011923280021822263
sg19
S'(commonTwoTokens, state)'
p689
sg21
g79
sg23
g645
sbag0
(g14
g2
Ntp690
Rp691
(dp692
g18
I2724839671134278939
sg19
S'(commonThreeTokens, state)'
p693
sg21
g84
sg23
g645
sbag0
(g14
g2
Ntp694
Rp695
(dp696
g18
I3986172463136028538
sg19
S'(fingerprint, state)'
p697
sg21
g89
sg23
g645
sbag0
(g14
g2
Ntp698
Rp699
(dp700
g18
I-230212988682859470
sg19
S'(oneGramFingerprint, state)'
p701
sg21
g94
sg23
g645
sbag0
(g14
g2
Ntp702
Rp703
(dp704
g18
I-2258629465768616792
sg19
S'(twoGramFingerprint, state)'
p705
sg21
g99
sg23
g645
sbag0
(g14
g2
Ntp706
Rp707
(dp708
g18
I1538336523647553346
sg19
S'(sortedAcronym, state)'
p709
sg21
g104
sg23
g645
sbag0
(g14
g2
Ntp710
Rp711
(dp712
g18
I-332799944510229289
sg19
S'(commonFourGram, state)'
p713
sg21
g109
sg23
g645
sbag0
(g14
g2
Ntp714
Rp715
(dp716
g18
I-6707912785729148200
sg19
S'(commonSixGram, state)'
p717
sg21
g114
sg23
g645
sbag0
(g14
g2
Ntp718
Rp719
(dp720
g18
I-6627868097739369278
sg19
S'(tokenFieldPredicate, state)'
p721
sg21
g119
sg23
g645
sbag0
(g14
g2
Ntp722
Rp723
(dp724
g18
I1003512583585000404
sg19
S'(suffixArray, state)'
p725
sg21
g124
sg23
g645
sbag0
(g14
g2
Ntp726
Rp727
(dp728
g18
I-3378096843870686734
sg19
S'(doubleMetaphone, state)'
p729
sg21
g129
sg23
g645
sbag0
(g14
g2
Ntp730
Rp731
(dp732
g18
I-8532539509215355347
sg19
S'(metaphoneToken, state)'
p733
sg21
g134
sg23
g645
sbag0
(g135
g2
Ntp734
Rp735
(dp736
g139
F0.2
sg19
S'(0.2, state)'
p737
sg23
g645
sbag0
(g135
g2
Ntp738
Rp739
(dp740
g139
F0.4
sg19
S'(0.4, state)'
p741
sg23
g645
sbag0
(g135
g2
Ntp742
Rp743
(dp744
g139
F0.6
sg19
S'(0.6, state)'
p745
sg23
g645
sbag0
(g135
g2
Ntp746
Rp747
(dp748
g139
F0.8
sg19
S'(0.8, state)'
p749
sg23
g645
sbag0
(g153
g2
Ntp750
Rp751
(dp752
g139
F0.2
sg19
S'(0.2, state)'
p753
sg23
g645
sbag0
(g153
g2
Ntp754
Rp755
(dp756
g139
F0.4
sg19
S'(0.4, state)'
p757
sg23
g645
sbag0
(g153
g2
Ntp758
Rp759
(dp760
g139
F0.6
sg19
S'(0.6, state)'
p761
sg23
g645
sbag0
(g153
g2
Ntp762
Rp763
(dp764
g139
F0.8
sg19
S'(0.8, state)'
p765
sg23
g645
sbag0
(g170
g2
Ntp766
Rp767
(dp768
g139
F0.2
sg19
S'(0.2, state)'
p769
sg23
g645
sbag0
(g170
g2
Ntp770
Rp771
(dp772
g139
F0.4
sg19
S'(0.4, state)'
p773
sg23
g645
sbag0
(g170
g2
Ntp774
Rp775
(dp776
g139
F0.6
sg19
S'(0.6, state)'
p777
sg23
g645
sbag0
(g170
g2
Ntp778
Rp779
(dp780
g139
F0.8
sg19
S'(0.8, state)'
p781
sg23
g645
sbag0
(g187
g2
Ntp782
Rp783
(dp784
g139
F0.2
sg19
S'(0.2, state)'
p785
sg23
g645
sbag0
(g187
g2
Ntp786
Rp787
(dp788
g139
F0.4
sg19
S'(0.4, state)'
p789
sg23
g645
sbag0
(g187
g2
Ntp790
Rp791
(dp792
g139
F0.6
sg19
S'(0.6, state)'
p793
sg23
g645
sbag0
(g187
g2
Ntp794
Rp795
(dp796
g139
F0.8
sg19
S'(0.8, state)'
p797
sg23
g645
sbag0
(g204
g2
Ntp798
Rp799
(dp800
g139
I1
sg19
S'(1, state)'
p801
sg23
g645
sbag0
(g204
g2
Ntp802
Rp803
(dp804
g139
I2
sg19
S'(2, state)'
p805
sg23
g645
sbag0
(g204
g2
Ntp806
Rp807
(dp808
g139
I3
sg19
S'(3, state)'
p809
sg23
g645
sbag0
(g204
g2
Ntp810
Rp811
(dp812
g139
I4
sg19
S'(4, state)'
p813
sg23
g645
sbag0
(g221
g2
Ntp814
Rp815
(dp816
g139
I1
sg19
S'(1, state)'
p817
sg23
g645
sbag0
(g221
g2
Ntp818
Rp819
(dp820
g139
I2
sg19
S'(2, state)'
p821
sg23
g645
sbag0
(g221
g2
Ntp822
Rp823
(dp824
g139
I3
sg19
S'(3, state)'
p825
sg23
g645
sbag0
(g221
g2
Ntp826
Rp827
(dp828
g139
I4
sg19
S'(4, state)'
p829
sg23
g645
sbasg23
g645
sg24
S'(state: String)'
p830
sg238
I00
sg239
g240
sbag0
(g8
g2
Ntp831
Rp832
(dp833
g12
(lp834
g0
(g14
g2
Ntp835
Rp836
(dp837
g18
I-6943123162338712324
sg19
S'(wholeFieldPredicate, zip)'
p838
sg21
g22
sg23
S'zip'
p839
sbag0
(g14
g2
Ntp840
Rp841
(dp842
g18
I6538059385211728886
sg19
S'(firstTokenPredicate, zip)'
p843
sg21
g29
sg23
g839
sbag0
(g14
g2
Ntp844
Rp845
(dp846
g18
I5146274944220315963
sg19
S'(commonIntegerPredicate, zip)'
p847
sg21
g34
sg23
g839
sbag0
(g14
g2
Ntp848
Rp849
(dp850
g18
I8857364385206449578
sg19
S'(nearIntegersPredicate, zip)'
p851
sg21
g39
sg23
g839
sbag0
(g14
g2
Ntp852
Rp853
(dp854
g18
I-5037835525702863129
sg19
S'(firstIntegerPredicate, zip)'
p855
sg21
g44
sg23
g839
sbag0
(g14
g2
Ntp856
Rp857
(dp858
g18
I-9146170287892602933
sg19
S'(hundredIntegerPredicate, zip)'
p859
sg21
g49
sg23
g839
sbag0
(g14
g2
Ntp860
Rp861
(dp862
g18
I6964699887540050209
sg19
S'(hundredIntegersOddPredicate, zip)'
p863
sg21
g54
sg23
g839
sbag0
(g14
g2
Ntp864
Rp865
(dp866
g18
I7438701844261587236
sg19
S'(alphaNumericPredicate, zip)'
p867
sg21
g59
sg23
g839
sbag0
(g14
g2
Ntp868
Rp869
(dp870
g18
I2151893288538145435
sg19
S'(sameThreeCharStartPredicate, zip)'
p871
sg21
g64
sg23
g839
sbag0
(g14
g2
Ntp872
Rp873
(dp874
g18
I-7157074818183255336
sg19
S'(sameFiveCharStartPredicate, zip)'
p875
sg21
g69
sg23
g839
sbag0
(g14
g2
Ntp876
Rp877
(dp878
g18
I1365774094328933020
sg19
S'(sameSevenCharStartPredicate, zip)'
p879
sg21
g74
sg23
g839
sbag0
(g14
g2
Ntp880
Rp881
(dp882
g18
I8916468368421215767
sg19
S'(commonTwoTokens, zip)'
p883
sg21
g79
sg23
g839
sbag0
(g14
g2
Ntp884
Rp885
(dp886
g18
I-3260894946592243285
sg19
S'(commonThreeTokens, zip)'
p887
sg21
g84
sg23
g839
sbag0
(g14
g2
Ntp888
Rp889
(dp890
g18
I1575666831750144782
sg19
S'(fingerprint, zip)'
p891
sg21
g89
sg23
g839
sbag0
(g14
g2
Ntp892
Rp893
(dp894
g18
I4101759296323749658
sg19
S'(oneGramFingerprint, zip)'
p895
sg21
g94
sg23
g839
sbag0
(g14
g2
Ntp896
Rp897
(dp898
g18
I7835270840630930132
sg19
S'(twoGramFingerprint, zip)'
p899
sg21
g99
sg23
g839
sbag0
(g14
g2
Ntp900
Rp901
(dp902
g18
I-620077145491282378
sg19
S'(sortedAcronym, zip)'
p903
sg21
g104
sg23
g839
sbag0
(g14
g2
Ntp904
Rp905
(dp906
g18
I5577101609599900267
sg19
S'(commonFourGram, zip)'
p907
sg21
g109
sg23
g839
sbag0
(g14
g2
Ntp908
Rp909
(dp910
g18
I-4533428721495809944
sg19
S'(commonSixGram, zip)'
p911
sg21
g114
sg23
g839
sbag0
(g14
g2
Ntp912
Rp913
(dp914
g18
I6235386860138004982
sg19
S'(tokenFieldPredicate, zip)'
p915
sg21
g119
sg23
g839
sbag0
(g14
g2
Ntp916
Rp917
(dp918
g18
I8413773929936464740
sg19
S'(suffixArray, zip)'
p919
sg21
g124
sg23
g839
sbag0
(g14
g2
Ntp920
Rp921
(dp922
g18
I-5574309321826096378
sg19
S'(doubleMetaphone, zip)'
p923
sg21
g129
sg23
g839
sbag0
(g14
g2
Ntp924
Rp925
(dp926
g18
I3358298556007746325
sg19
S'(metaphoneToken, zip)'
p927
sg21
g134
sg23
g839
sbag0
(g135
g2
Ntp928
Rp929
(dp930
g139
F0.2
sg19
S'(0.2, zip)'
p931
sg23
g839
sbag0
(g135
g2
Ntp932
Rp933
(dp934
g139
F0.4
sg19
S'(0.4, zip)'
p935
sg23
g839
sbag0
(g135
g2
Ntp936
Rp937
(dp938
g139
F0.6
sg19
S'(0.6, zip)'
p939
sg23
g839
sbag0
(g135
g2
Ntp940
Rp941
(dp942
g139
F0.8
sg19
S'(0.8, zip)'
p943
sg23
g839
sbag0
(g153
g2
Ntp944
Rp945
(dp946
g139
F0.2
sg19
S'(0.2, zip)'
p947
sg23
g839
sbag0
(g153
g2
Ntp948
Rp949
(dp950
g139
F0.4
sg19
S'(0.4, zip)'
p951
sg23
g839
sbag0
(g153
g2
Ntp952
Rp953
(dp954
g139
F0.6
sg19
S'(0.6, zip)'
p955
sg23
g839
sbag0
(g153
g2
Ntp956
Rp957
(dp958
g139
F0.8
sg19
S'(0.8, zip)'
p959
sg23
g839
sbag0
(g170
g2
Ntp960
Rp961
(dp962
g139
F0.2
sg19
S'(0.2, zip)'
p963
sg23
g839
sbag0
(g170
g2
Ntp964
Rp965
(dp966
g139
F0.4
sg19
S'(0.4, zip)'
p967
sg23
g839
sbag0
(g170
g2
Ntp968
Rp969
(dp970
g139
F0.6
sg19
S'(0.6, zip)'
p971
sg23
g839
sbag0
(g170
g2
Ntp972
Rp973
(dp974
g139
F0.8
sg19
S'(0.8, zip)'
p975
sg23
g839
sbag0
(g187
g2
Ntp976
Rp977
(dp978
g139
F0.2
sg19
S'(0.2, zip)'
p979
sg23
g839
sbag0
(g187
g2
Ntp980
Rp981
(dp982
g139
F0.4
sg19
S'(0.4, zip)'
p983
sg23
g839
sbag0
(g187
g2
Ntp984
Rp985
(dp986
g139
F0.6
sg19
S'(0.6, zip)'
p987
sg23
g839
sbag0
(g187
g2
Ntp988
Rp989
(dp990
g139
F0.8
sg19
S'(0.8, zip)'
p991
sg23
g839
sbag0
(g402
g2
Ntp992
Rp993
(dp994
g18
I-6727035679634706693
sg19
S'(Exists, zip)'
p995
sg23
g839
sbag0
(g204
g2
Ntp996
Rp997
(dp998
g139
I1
sg19
S'(1, zip)'
p999
sg23
g839
sbag0
(g204
g2
Ntp1000
Rp1001
(dp1002
g139
I2
sg19
S'(2, zip)'
p1003
sg23
g839
sbag0
(g204
g2
Ntp1004
Rp1005
(dp1006
g139
I3
sg19
S'(3, zip)'
p1007
sg23
g839
sbag0
(g204
g2
Ntp1008
Rp1009
(dp1010
g139
I4
sg19
S'(4, zip)'
p1011
sg23
g839
sbag0
(g221
g2
Ntp1012
Rp1013
(dp1014
g139
I1
sg19
S'(1, zip)'
p1015
sg23
g839
sbag0
(g221
g2
Ntp1016
Rp1017
(dp1018
g139
I2
sg19
S'(2, zip)'
p1019
sg23
g839
sbag0
(g221
g2
Ntp1020
Rp1021
(dp1022
g139
I3
sg19
S'(3, zip)'
p1023
sg23
g839
sbag0
(g221
g2
Ntp1024
Rp1025
(dp1026
g139
I4
sg19
S'(4, zip)'
p1027
sg23
g839
sbasg23
g839
sg24
S'(zip: String)'
p1028
sg238
I01
sg239
g240
sbag0
(cdedupe.variables.categorical_type
CategoricalType
p1029
g2
Ntp1030
Rp1031
(dp1032
g24
S'person'
p1033
sg239
g0
(ccategorical.categorical
CategoricalComparator
p1034
g2
Ntp1035
Rp1036
(dp1037
S'dummy_names'
p1038
(lp1039
(I1
I1
tp1040
a(I0
I1
tp1041
asS'levels'
p1042
c__builtin__
set
p1043
((lp1044
I0
aI1
atp1045
Rp1046
sS'categories'
p1047
(dp1048
(I0
I1
tp1049
cnumpy.core.multiarray
_reconstruct
p1050
(cnumpy
ndarray
p1051
(I0
tp1052
S'b'
p1053
tp1054
Rp1055
(I1
(I2
tp1056
cnumpy
dtype
p1057
(S'f8'
p1058
I0
I1
tp1059
Rp1060
(I3
S'<'
p1061
NNNI-1
I-1
I0
tp1062
bI00
S'\x00\x00\x00\x00\x00\x00\x00\x00\x00\x00\x00\x00\x00\x00\xf0?'
p1063
tp1064
bs(I1
I0
tp1065
g1055
s(I0
I0
tp1066
g1050
(g1051
(I0
tp1067
g1053
tp1068
Rp1069
(I1
(I2
tp1070
g1060
I00
S'\x00\x00\x00\x00\x00\x00\x00\x00\x00\x00\x00\x00\x00\x00\x00\x00'
p1071
tp1072
bs(I1
I1
tp1073
g1050
(g1051
(I0
tp1074
g1053
tp1075
Rp1076
(I1
(I2
tp1077
g1060
I00
S'\x00\x00\x00\x00\x00\x00\xf0?\x00\x00\x00\x00\x00\x00\x00\x00'
p1078
tp1079
bssbsg23
g1033
sS'higher_vars'
p1080
(lp1081
g0
(cdedupe.variables.base
DerivedType
p1082
g2
Ntp1083
Rp1084
(dp1085
g24
S'((1, 1): Dummy)'
p1086
sg238
I00
sbag0
(g1082
g2
Ntp1087
Rp1088
(dp1089
g24
S'((0, 1): Dummy)'
p1090
sg238
I00
sbasg238
I00
sg12
(lp1091
g0
(cdedupe.predicates
SimplePredicate
p1092
g2
Ntp1093
Rp1094
(dp1095
g18
I-3292466075798616179
sg19
S'(wholeFieldPredicate, person)'
p1096
sg21
g22
sg23
g1033
sbasbasS'_variables'
p1097
(lp1098
g10
ag242
ag440
ag638
ag832
ag1084
ag1088
ag0
(cdedupe.variables.interaction
InteractionType
p1099
g2
Ntp1100
Rp1101
(dp1102
g238
I01
sg24
S"(Interaction: ['((1, 1): Dummy)', 'address'])"
p1103
sS'interaction_fields'
p1104
(lp1105
g1086
ag249
asS'interactions'
p1106
g1105
sbag0
(g1099
g2
Ntp1107
Rp1108
(dp1109
g238
I01
sg24
S"(Interaction: ['((0, 1): Dummy)', 'address'])"
p1110
sg1104
(lp1111
g1090
ag249
asg1106
g1111
sbag0
(g1099
g2
Ntp1112
Rp1113
(dp1114
g238
I01
sg24
S"(Interaction: ['name', 'address'])"
p1115
sg1104
(lp1116
g24
ag249
asg1106
g1116
sbag0
(cdedupe.variables.base
MissingDataType
p1117
g2
Ntp1118
Rp1119
(dp1120
g24
S'(address: Not Missing)'
p1121
sg238
I00
sbag0
(g1117
g2
Ntp1122
Rp1123
(dp1124
g24
S'((city: String): Not Missing)'
p1125
sg238
I00
sbag0
(g1117
g2
Ntp1126
Rp1127
(dp1128
g24
S'((zip: String): Not Missing)'
p1129
sg238
I00
sbag0
(g1117
g2
Ntp1130
Rp1131
(dp1132
g24
S"((Interaction: ['((1, 1): Dummy)', 'address']): Not Missing)"
p1133
sg238
I00
sbag0
(g1117
g2
Ntp1134
Rp1135
(dp1136
g24
S"((Interaction: ['((0, 1): Dummy)', 'address']): Not Missing)"
p1137
sg238
I00
sbag0
(g1117
g2
Ntp1138
Rp1139
(dp1140
g24
S"((Interaction: ['name', 'address']): Not Missing)"
p1141
sg238
I00
sbasS'_missing_field_indices'
p1142
(lp1143
I1
aI2
aI4
aI7
aI8
aI9
asS'_derived_start'
p1144
I7
sS'_interaction_indices'
p1145
(lp1146
(lp1147
I5
aI1
aa(lp1148
I6
aI1
aa(lp1149
I0
aI1
aasb.ccopy_reg
_reconstructor
p0
(crlr.lr
RegularizedLogisticRegression
p1
c__builtin__
object
p2
Ntp3
Rp4
(dp5
S'alpha'
p6
F1e-05
sS'bias'
p7
cnumpy.core.multiarray
scalar
p8
(cnumpy
dtype
p9
(S'f8'
p10
I0
I1
tp11
Rp12
(I3
S'<'
p13
NNNI-1
I-1
I0
tp14
bS'\xf2\x9b\x06\xbd\xbd\xedT\xc0'
p15
tp16
Rp17
sS'num_cores'
p18
I0
sS'cv'
p19
I3
sS'weights'
p20
cnumpy.core.multiarray
_reconstruct
p21
(cnumpy
ndarray
p22
(I0
tp23
S'b'
p24
tp25
Rp26
(I1
(I16
tp27
g12
I00
S"\x9f\xa97<H'\xe9\xbf\xf4*\x01 ,\t'@\xc3L\x08\x10xU\xd7\xbf\x9e\xf8\xf2\n\xad\xdf\x11@\x9d\x86w\xabd\xee\xc5?\xd8\x80\xca\xfb\x16,H@\xd6^\x12\xc1\xe0\x1b \xc0\xc4\xe3\xb4\x11\xb7\x87'\xc0\x1fw\x9b\xf3@\xd2\xe2?\x047f\x9c\xc53\xd6\xbf<\xe4\xb8\xee8\xf6\x18@<\xe4\xb8\xee8\xf6\x18@<\xe4\xb8\xee8\xf6\x18@<\xe4\xb8\xee8\xf6\x18@<\xe4\xb8\xee8\xf6\x18@<\xe4\xb8\xee8\xf6\x18@"
p28
tp29
bsb.(ccopy_reg
_reconstructor
p0
(cdedupe.predicates
CompoundPredicate
p1
c__builtin__
tuple
p2
(g0
(cdedupe.predicates
LevenshteinCanopyPredicate
p3
c__builtin__
object
p4
Ntp5
Rp6
(dp7
S'threshold'
p8
I1
sS'__name__'
p9
S'(1, address)'
p10
sS'field'
p11
S'address'
p12
sbg0
(cdedupe.predicates
StringPredicate
p13
g4
Ntp14
Rp15
(dp16
S'_cached_hash'
p17
I3720311274714888862
sg9
S'(metaphoneToken, name)'
p18
sS'func'
p19
cdedupe.predicates
metaphoneToken
p20
sg11
S'name'
p21
sbtp22
tp23
Rp24
(dp25
S'count'
p26
F1246199.4324024997
sbg0
(g1
g2
(g0
(g13
g4
Ntp27
Rp28
(dp29
g17
I3110945323757903147
sg9
S'(fingerprint, name)'
p30
sg19
cdedupe.predicates
fingerprint
p31
sg11
g21
sbg0
(cdedupe.predicates
TfidfTextCanopyPredicate
p32
g4
Ntp33
Rp34
(dp35
g8
F0.8
sg9
S'(0.8, name)'
p36
sg11
g21
sbtp37
tp38
Rp39
(dp40
g26
F2617018.8080452494
sbg0
(g1
g2
(g0
(g13
g4
Ntp41
Rp42
(dp43
g17
I-2985969646012599355
sg9
S'(alphaNumericPredicate, name)'
p44
sg19
cdedupe.predicates
alphaNumericPredicate
p45
sg11
g21
sbg0
(g13
g4
Ntp46
Rp47
(dp48
g17
I1372301868192084684
sg9
S'(commonThreeTokens, name)'
p49
sg19
cdedupe.predicates
commonThreeTokens
p50
sg11
g21
sbtp51
tp52
Rp53
(dp54
g26
F623099.7162012499
sbg0
(g1
g2
(g47
g0
(g13
g4
Ntp55
Rp56
(dp57
g17
I8622174307420082516
sg9
S'(commonTwoTokens, city)'
p58
sg19
cdedupe.predicates
commonTwoTokens
p59
sg11
S'city'
p60
sbtp61
tp62
Rp63
(dp64
g26
F0.0
sbg0
(g1
g2
(g0
(g13
g4
Ntp65
Rp66
(dp67
g17
I7472316170684315496
sg9
S'(commonIntegerPredicate, name)'
p68
sg19
cdedupe.predicates
commonIntegerPredicate
p69
sg11
g21
sbg0
(g13
g4
Ntp70
Rp71
(dp72
g17
I-7508851502685450551
sg9
S'(sortedAcronym, address)'
p73
sg19
cdedupe.predicates
sortedAcronym
p74
sg11
g12
sbtp75
tp76
Rp77
(dp78
g26
F124619.94324024998
sbg0
(g1
g2
(g0
(g13
g4
Ntp79
Rp80
(dp81
g17
I2137030375637274976
sg9
S'(commonThreeTokens, address)'
p82
sg19
g50
sg11
g12
sbg0
(cdedupe.predicates
TfidfNGramCanopyPredicate
p83
g4
Ntp84
Rp85
(dp86
g8
F0.8
sg9
S'(0.8, zip)'
p87
sg11
S'zip'
p88
sbtp89
tp90
Rp91
(dp92
g26
F124619.94324024998
sbg0
(g1
g2
(g47
g0
(g83
g4
Ntp93
Rp94
(dp95
g8
F0.2
sg9
S'(0.2, zip)'
p96
sg11
g88
sbtp97
tp98
Rp99
(dp100
g26
F249239.88648049996
sbtp101
.